target datalayout = "e-m:e-p270:32:32-p271:32:32-p272:64:64-i64:64-i128:128-f80:128-n8:16:32:64-S128"
target triple = "x86_64-pc-linux-gnu"

@proto_register_kingfisher.ett = internal global [1 x ptr] [ptr @ett_kingfisher], align 8
@.str.24 = private unnamed_addr constant [11 x i8] c"Kingfisher\00", align 1
@.str.25 = private unnamed_addr constant [3 x i8] c"kf\00", align 1
@proto_kingfisher = internal global i32 0, align 4
@kingfisher_handle = internal global ptr null, align 8

; Function Attrs: nounwind uwtable
define hidden void @proto_register_kingfisher() #0 {
  %1 = alloca ptr, align 8
  %2 = call i32 @proto_register_protocol(ptr noundef @.str.24, ptr noundef @.str.24, ptr noundef @.str.25)
  store i32 %2, ptr @proto_kingfisher, align 4
  %3 = load i32, ptr @proto_kingfisher, align 4
  call void @proto_register_field_array(i32 noundef %3, ptr noundef @proto_register_kingfisher.hf, i32 noundef 11)
  call void @proto_register_subtree_array(ptr noundef @proto_register_kingfisher.ett, i32 noundef 1)
  %4 = load i32, ptr @proto_kingfisher, align 4
  %5 = call ptr @expert_register_protocol(i32 noundef %4)
  store ptr %5, ptr %1, align 8
  %6 = load ptr, ptr %1, align 8
  call void @expert_register_field_array(ptr noundef %6, ptr noundef @proto_register_kingfisher.ei, i32 noundef 1)
  %7 = load i32, ptr @proto_kingfisher, align 4
  %8 = call ptr @register_dissector(ptr noundef @.str.25, ptr noundef @dissect_kingfisher_heur, i32 noundef %7)
  store ptr %8, ptr @kingfisher_handle, align 8
  ret void
}