; Function Attrs: nounwind uwtable
define hidden void @proto_register_kingfisher() local_unnamed_addr #0 {
  %1 = tail call i32 @proto_register_protocol(ptr noundef nonnull @.str.24, ptr noundef nonnull @.str.24, ptr noundef nonnull @.str.25) #2
  store i32 %1, ptr @proto_kingfisher, align 4
  tail call void @proto_register_field_array(i32 noundef %1, ptr noundef nonnull @proto_register_kingfisher.hf, i32 noundef 11) #2
  tail call void @proto_register_subtree_array(ptr noundef nonnull @proto_register_kingfisher.ett, i32 noundef 1) #2
  %2 = load i32, ptr @proto_kingfisher, align 4
  %3 = tail call ptr @expert_register_protocol(i32 noundef %2) #2
  tail call void @expert_register_field_array(ptr noundef %3, ptr noundef nonnull @proto_register_kingfisher.ei, i32 noundef 1) #2
  %4 = load i32, ptr @proto_kingfisher, align 4
  %5 = tail call ptr @register_dissector(ptr noundef nonnull @.str.25, ptr noundef nonnull @dissect_kingfisher_heur, i32 noundef %4) #2
  store ptr %5, ptr @kingfisher_handle, align 8
  ret void
}